LIBRARY ezusb2-popn-shim

EXPORTS
    DllMain@12 @1 NONAME
    ?usbBootSecurity@@YAHPAEHHH@Z=proxy_usb_boot_security
    ?usbBootSecurityAll@@YAHPAEHHH@Z=proxy_usb_boot_security_all
    ?usbBootSecurityAllR@@YAHPAEHHH@Z=proxy_usb_boot_security_all_r
    ?usbCheckAlive@@YAHXZ=proxy_usb_check_alive
    ?usbCheckSecurity@@YAHPAEHHH@Z=proxy_usb_check_security
    ?usbCheckSecurityEep@@YAHH@Z=proxy_usb_check_security_eep
    ?usbCheckSecurityNew@@YAHH@Z=proxy_usb_check_security_new
    ?usbCoinBlocker@@YAHH@Z=proxy_usb_coin_blocker
    ?usbCoinGet2@@YAHPAUCoinParam@@@Z=proxy_usb_coin_get2
    ?usbCoinGet@@YAHH@Z=proxy_usb_coin_get
    ?usbCoinMeterDown@@YAHH@Z=proxy_usb_coin_meter_down
    ?usbCoinMeterUp@@YAHH@Z=proxy_usb_coin_meter_up
    ?usbCoinMode@@YAHH@Z=proxy_usb_coin_mode
    ?usbCoinUp@@YAHH@Z=proxy_usb_coin_up
    ?usbEepRead@@YAHXZ=proxy_usb_eep_read
    ?usbEepReadDone@@YAHPAE@Z=proxy_usb_eep_read_done
    ?usbEepTest@@YAHXZ=proxy_usb_eep_test
    ?usbEepWrite@@YAHPAE@Z=proxy_usb_eep_write
    ?usbEepWriteDone@@YAHXZ=proxy_usb_eep_write_done
    ?usbEnd@@YAHXZ=proxy_usb_end
    ?usbFactoryModeInit@@YAHPAE@Z=proxy_usb_factory_mode_init
    ?usbFirmResult@@YAHXZ=proxy_usb_firm_result
    ?usbGetError@@YAHPAD@Z=proxy_usb_get_error
    ?usbGetKEYID@@YAHPAEH@Z=proxy_usb_get_keyid
    ?usbGetMute@@YAHXZ=proxy_usb_get_mute
    ?usbGetPCBID@@YAHPAE@Z=proxy_usb_get_pcbid
    ?usbGetSecurity@@YAHHPAE@Z=proxy_usb_get_security
    ?usbIsHiSpeed@@YAHXZ=proxy_usb_is_hi_speed
    ?usbLamp@@YAHH@Z=proxy_usb_lamp
    ?usbMute@@YAHH@Z=proxy_usb_mute
    ?usbPadRead@@YAHPAK@Z=proxy_usb_pad_read
    ?usbPadReadLast@@YAHPAE@Z=proxy_usb_pad_read_last
    ?usbReadEepHistory@@YAHPAUEEP_HISTORY@@@Z=proxy_usb_read_eep_history
    ?usbSecurityGetId@@YAHXZ=proxy_usb_security_get_id
    ?usbSecurityGetIdDone@@YAHPAE@Z=proxy_usb_security_get_id_done
    ?usbSecurityInit@@YAHXZ=proxy_usb_security_init
    ?usbSecurityInitDone@@YAHXZ=proxy_usb_security_init_done
    ?usbSecurityRead@@YAHXZ=proxy_usb_security_read
    ?usbSecurityReadDone@@YAHPAE@Z=proxy_usb_security_read_done
    ?usbSecuritySearch@@YAHXZ=proxy_usb_security_search
    ?usbSecuritySearchDone@@YAHXZ=proxy_usb_security_search_done
    ?usbSecuritySelect@@YAHH@Z=proxy_usb_security_select
    ?usbSecuritySelectDone@@YAHXZ=proxy_usb_security_select_done
    ?usbSecurityTest@@YAHH@Z=proxy_usb_security_test
    ?usbSecurityWrite@@YAHPAE@Z=proxy_usb_security_write
    ?usbSecurityWriteDone@@YAHXZ=proxy_usb_security_write_done
    ?usbSetExtIo@@YAHH@Z=proxy_usb_set_ext_io
    ?usbSetupEeprom@@YAHPAEHHH@Z=proxy_usb_setup_eeprom
    ?usbSetupEepromNew@@YAHHPAEHHH@Z=proxy_usb_setup_eeprom_new
    ?usbSetupSecurity@@YAHPAEHHH@Z=proxy_usb_setup_security
    ?usbSetupSecurityComplete@@YAHPAEHHH@Z=proxy_usb_setup_security_complete
    ?usbSetupSecurityCompleteNew@@YAHHPAEHHH@Z=proxy_usb_setup_security_complete_new
    ?usbSetupSecurityNew@@YAHHPAEHHH@Z=proxy_usb_setup_security_new
    ?usbStart@@YAHH@Z=proxy_usb_start
    ?usbStartWithFile@@YAHPAD@Z=proxy_usb_start_with_file
    ?usbWdtReset@@YAHXZ=proxy_usb_wdt_reset
    ?usbWdtStart@@YAHH@Z=proxy_usb_wdt_start
    ?usbWdtStartDone@@YAHXZ=proxy_usb_wdt_start_done
    ?usbWdtStop@@YAHXZ=proxy_usb_wdt_stop
